; Function Attrs: mustprogress nounwind uwtable
define hidden noundef i64 @_ZNK11G1Analytics21predict_scan_card_numEmb(ptr noundef nonnull align 8 dereferenceable(2048) %0, i64 noundef %1, i1 noundef zeroext %2) local_unnamed_addr #1 align 2 {
  %4 = uitofp i64 %1 to double
  %5 = getelementptr inbounds i8, ptr %0, i64 520
  %6 = load ptr, ptr %0, align 8
  %7 = tail call noundef double @_ZNK19G1PhaseDependentSeq7predictEPK13G1Predictionsb(ptr noundef nonnull align 8 dereferenceable(144) %5, ptr noundef %6, i1 noundef zeroext %2)
  %8 = fcmp ogt double %7, 0.000000e+00
  %9 = select i1 %8, double %7, double 0.000000e+00
  %10 = fcmp olt double %9, 1.000000e+00
  %11 = select i1 %10, double %9, double 1.000000e+00
  %12 = fmul double %11, %4
  %13 = fptoui double %12 to i64
  ret i64 %13
}